target datalayout = "e-m:e-p270:32:32-p271:32:32-p272:64:64-i64:64-i128:128-f80:128-n8:16:32:64-S128"
target triple = "x86_64-pc-linux-gnu"

%struct.PSH_GlyphRec_ = type { i32, i32, ptr, ptr, ptr, ptr, ptr, [2 x %struct.PSH_Hint_TableRec_], i8, i8, i8, i8, i8 }
%struct.PSH_Hint_TableRec_ = type { i32, i32, ptr, ptr, ptr, i32, ptr, ptr, ptr, ptr }
%struct.PSH_GlobalsRec_ = type { ptr, [2 x %struct.PSH_DimensionRec_], %struct.PSH_BluesRec_ }
%struct.PSH_DimensionRec_ = type { %struct.PSH_WidthsRec_, i64, i64 }
%struct.PSH_WidthsRec_ = type { i32, [16 x %struct.PSH_WidthRec_] }
%struct.PSH_WidthRec_ = type { i32, i64, i64 }
%struct.PSH_BluesRec_ = type { %struct.PSH_Blue_TableRec_, %struct.PSH_Blue_TableRec_, %struct.PSH_Blue_TableRec_, %struct.PSH_Blue_TableRec_, i64, i32, i32, i32, i8 }
%struct.PSH_Blue_TableRec_ = type { i32, [16 x %struct.PSH_Blue_ZoneRec_] }
%struct.PSH_Blue_ZoneRec_ = type { i32, i32, i32, i32, i64, i64, i64, i64 }
%struct.PSH_PointRec_ = type { ptr, ptr, ptr, i32, i32, i32, i32, ptr, i64, i64, i64 }
%struct.PSH_ContourRec_ = type { ptr, i32 }

; Function Attrs: nounwind uwtable
define internal i32 @FT_MulFix_x86_64(i32 noundef %0, i32 noundef %1) #0 {
  %3 = alloca i32, align 4
  %4 = alloca i32, align 4
  %5 = alloca i64, align 8
  %6 = alloca i64, align 8
  store i32 %0, ptr %3, align 4
  store i32 %1, ptr %4, align 4
  %7 = load i32, ptr %3, align 4
  %8 = sext i32 %7 to i64
  %9 = load i32, ptr %4, align 4
  %10 = sext i32 %9 to i64
  %11 = mul nsw i64 %8, %10
  store i64 %11, ptr %5, align 8
  %12 = load i64, ptr %5, align 8
  %13 = ashr i64 %12, 63
  store i64 %13, ptr %6, align 8
  %14 = load i64, ptr %6, align 8
  %15 = add nsw i64 32768, %14
  %16 = load i64, ptr %5, align 8
  %17 = add nsw i64 %16, %15
  store i64 %17, ptr %5, align 8
  %18 = load i64, ptr %5, align 8
  %19 = ashr i64 %18, 16
  %20 = trunc i64 %19 to i32
  ret i32 %20
}

; Function Attrs: nounwind uwtable
define internal void @psh_glyph_interpolate_other_points(ptr noundef %0, i32 noundef %1) #0 {
  %3 = alloca ptr, align 8
  %4 = alloca i32, align 4
  %5 = alloca ptr, align 8
  %6 = alloca i64, align 8
  %7 = alloca i64, align 8
  %8 = alloca ptr, align 8
  %9 = alloca i32, align 4
  %10 = alloca ptr, align 8
  %11 = alloca ptr, align 8
  %12 = alloca ptr, align 8
  %13 = alloca ptr, align 8
  %14 = alloca i32, align 4
  %15 = alloca i64, align 8
  %16 = alloca i64, align 8
  %17 = alloca i64, align 8
  %18 = alloca i64, align 8
  %19 = alloca i64, align 8
  %20 = alloca i64, align 8
  %21 = alloca i64, align 8
  %22 = alloca i64, align 8
  store ptr %0, ptr %3, align 8
  store i32 %1, ptr %4, align 4
  %23 = load ptr, ptr %3, align 8
  %24 = getelementptr inbounds %struct.PSH_GlyphRec_, ptr %23, i32 0, i32 6
  %25 = load ptr, ptr %24, align 8
  %26 = getelementptr inbounds %struct.PSH_GlobalsRec_, ptr %25, i32 0, i32 1
  %27 = load i32, ptr %4, align 4
  %28 = sext i32 %27 to i64
  %29 = getelementptr inbounds [2 x %struct.PSH_DimensionRec_], ptr %26, i64 0, i64 %28
  store ptr %29, ptr %5, align 8
  %30 = load ptr, ptr %5, align 8
  %31 = getelementptr inbounds %struct.PSH_DimensionRec_, ptr %30, i32 0, i32 1
  %32 = load i64, ptr %31, align 8
  store i64 %32, ptr %6, align 8
  %33 = load ptr, ptr %5, align 8
  %34 = getelementptr inbounds %struct.PSH_DimensionRec_, ptr %33, i32 0, i32 2
  %35 = load i64, ptr %34, align 8
  store i64 %35, ptr %7, align 8
  %36 = load ptr, ptr %3, align 8
  %37 = getelementptr inbounds %struct.PSH_GlyphRec_, ptr %36, i32 0, i32 3
  %38 = load ptr, ptr %37, align 8
  store ptr %38, ptr %8, align 8
  %39 = load ptr, ptr %3, align 8
  %40 = getelementptr inbounds %struct.PSH_GlyphRec_, ptr %39, i32 0, i32 1
  %41 = load i32, ptr %40, align 4
  store i32 %41, ptr %9, align 4
  br label %42

42:                                               ; preds = %274, %2
  %43 = load i32, ptr %9, align 4
  %44 = icmp ugt i32 %43, 0
  br i1 %44, label %45, label %279

45:                                               ; preds = %42
  %46 = load ptr, ptr %8, align 8
  %47 = getelementptr inbounds %struct.PSH_ContourRec_, ptr %46, i32 0, i32 0
  %48 = load ptr, ptr %47, align 8
  store ptr %48, ptr %10, align 8
  %49 = load ptr, ptr %10, align 8
  %50 = load ptr, ptr %8, align 8
  %51 = getelementptr inbounds %struct.PSH_ContourRec_, ptr %50, i32 0, i32 1
  %52 = load i32, ptr %51, align 8
  %53 = zext i32 %52 to i64
  %54 = getelementptr inbounds %struct.PSH_PointRec_, ptr %49, i64 %53
  store ptr %54, ptr %12, align 8
  store i32 0, ptr %14, align 4
  store ptr null, ptr %11, align 8
  %55 = load ptr, ptr %10, align 8
  store ptr %55, ptr %13, align 8
  br label %56

56:                                               ; preds = %75, %45
  %57 = load ptr, ptr %13, align 8
  %58 = load ptr, ptr %12, align 8
  %59 = icmp ult ptr %57, %58
  br i1 %59, label %60, label %78

60:                                               ; preds = %56
  %61 = load ptr, ptr %13, align 8
  %62 = getelementptr inbounds %struct.PSH_PointRec_, ptr %61, i32 0, i32 4
  %63 = load i32, ptr %62, align 4
  %64 = and i32 %63, 32
  %65 = icmp ne i32 %64, 0
  br i1 %65, label %66, label %74

66:                                               ; preds = %60
  %67 = load ptr, ptr %11, align 8
  %68 = icmp ne ptr %67, null
  br i1 %68, label %71, label %69

69:                                               ; preds = %66
  %70 = load ptr, ptr %13, align 8
  store ptr %70, ptr %11, align 8
  br label %71

71:                                               ; preds = %69, %66
  %72 = load i32, ptr %14, align 4
  %73 = add i32 %72, 1
  store i32 %73, ptr %14, align 4
  br label %74

74:                                               ; preds = %71, %60
  br label %75

75:                                               ; preds = %74
  %76 = load ptr, ptr %13, align 8
  %77 = getelementptr inbounds %struct.PSH_PointRec_, ptr %76, i32 1
  store ptr %77, ptr %13, align 8
  br label %56, !llvm.loop !30

78:                                               ; preds = %56
  %79 = load i32, ptr %14, align 4
  %80 = icmp ult i32 %79, 2
  br i1 %80, label %81, label %125

81:                                               ; preds = %78
  %82 = load i32, ptr %14, align 4
  %83 = icmp eq i32 %82, 1
  br i1 %83, label %84, label %97

84:                                               ; preds = %81
  %85 = load ptr, ptr %11, align 8
  %86 = getelementptr inbounds %struct.PSH_PointRec_, ptr %85, i32 0, i32 10
  %87 = load i64, ptr %86, align 8
  %88 = load ptr, ptr %11, align 8
  %89 = getelementptr inbounds %struct.PSH_PointRec_, ptr %88, i32 0, i32 8
  %90 = load i64, ptr %89, align 8
  %91 = trunc i64 %90 to i32
  %92 = load i64, ptr %6, align 8
  %93 = trunc i64 %92 to i32
  %94 = call i32 @FT_MulFix_x86_64(i32 noundef %91, i32 noundef %93)
  %95 = sext i32 %94 to i64
  %96 = sub nsw i64 %87, %95
  store i64 %96, ptr %7, align 8
  br label %97

97:                                               ; preds = %84, %81
  %98 = load ptr, ptr %10, align 8
  store ptr %98, ptr %13, align 8
  br label %99

99:                                               ; preds = %121, %97
  %100 = load ptr, ptr %13, align 8
  %101 = load ptr, ptr %12, align 8
  %102 = icmp ult ptr %100, %101
  br i1 %102, label %103, label %124

103:                                              ; preds = %99
  %104 = load ptr, ptr %13, align 8
  %105 = load ptr, ptr %11, align 8
  %106 = icmp ne ptr %104, %105
  br i1 %106, label %107, label %120

107:                                              ; preds = %103
  %108 = load ptr, ptr %13, align 8
  %109 = getelementptr inbounds %struct.PSH_PointRec_, ptr %108, i32 0, i32 8
  %110 = load i64, ptr %109, align 8
  %111 = trunc i64 %110 to i32
  %112 = load i64, ptr %6, align 8
  %113 = trunc i64 %112 to i32
  %114 = call i32 @FT_MulFix_x86_64(i32 noundef %111, i32 noundef %113)
  %115 = sext i32 %114 to i64
  %116 = load i64, ptr %7, align 8
  %117 = add nsw i64 %115, %116
  %118 = load ptr, ptr %13, align 8
  %119 = getelementptr inbounds %struct.PSH_PointRec_, ptr %118, i32 0, i32 10
  store i64 %117, ptr %119, align 8
  br label %120

120:                                              ; preds = %107, %103
  br label %121

121:                                              ; preds = %120
  %122 = load ptr, ptr %13, align 8
  %123 = getelementptr inbounds %struct.PSH_PointRec_, ptr %122, i32 1
  store ptr %123, ptr %13, align 8
  br label %99, !llvm.loop !31

124:                                              ; preds = %99
  br label %273

125:                                              ; preds = %78
  %126 = load ptr, ptr %11, align 8
  store ptr %126, ptr %10, align 8
  br label %127

127:                                              ; preds = %268, %125
  br label %128

128:                                              ; preds = %143, %127
  %129 = load ptr, ptr %11, align 8
  %130 = getelementptr inbounds %struct.PSH_PointRec_, ptr %129, i32 0, i32 1
  %131 = load ptr, ptr %130, align 8
  store ptr %131, ptr %12, align 8
  %132 = load ptr, ptr %12, align 8
  %133 = load ptr, ptr %10, align 8
  %134 = icmp eq ptr %132, %133
  br i1 %134, label %135, label %136

135:                                              ; preds = %128
  br label %273

136:                                              ; preds = %128
  %137 = load ptr, ptr %12, align 8
  %138 = getelementptr inbounds %struct.PSH_PointRec_, ptr %137, i32 0, i32 4
  %139 = load i32, ptr %138, align 4
  %140 = and i32 %139, 32
  %141 = icmp ne i32 %140, 0
  br i1 %141, label %143, label %142

142:                                              ; preds = %136
  br label %145

143:                                              ; preds = %136
  %144 = load ptr, ptr %12, align 8
  store ptr %144, ptr %11, align 8
  br label %128

145:                                              ; preds = %142
  br label %146

146:                                              ; preds = %156, %145
  %147 = load ptr, ptr %12, align 8
  %148 = getelementptr inbounds %struct.PSH_PointRec_, ptr %147, i32 0, i32 1
  %149 = load ptr, ptr %148, align 8
  store ptr %149, ptr %12, align 8
  %150 = load ptr, ptr %12, align 8
  %151 = getelementptr inbounds %struct.PSH_PointRec_, ptr %150, i32 0, i32 4
  %152 = load i32, ptr %151, align 4
  %153 = and i32 %152, 32
  %154 = icmp ne i32 %153, 0
  br i1 %154, label %155, label %156

155:                                              ; preds = %146
  br label %157

156:                                              ; preds = %146
  br label %146

157:                                              ; preds = %155
  %158 = load ptr, ptr %11, align 8
  %159 = getelementptr inbounds %struct.PSH_PointRec_, ptr %158, i32 0, i32 8
  %160 = load i64, ptr %159, align 8
  %161 = load ptr, ptr %12, align 8
  %162 = getelementptr inbounds %struct.PSH_PointRec_, ptr %161, i32 0, i32 8
  %163 = load i64, ptr %162, align 8
  %164 = icmp sle i64 %160, %163
  br i1 %164, label %165, label %182

165:                                              ; preds = %157
  %166 = load ptr, ptr %11, align 8
  %167 = getelementptr inbounds %struct.PSH_PointRec_, ptr %166, i32 0, i32 8
  %168 = load i64, ptr %167, align 8
  store i64 %168, ptr %15, align 8
  %169 = load ptr, ptr %11, align 8
  %170 = getelementptr inbounds %struct.PSH_PointRec_, ptr %169, i32 0, i32 10
  %171 = load i64, ptr %170, align 8
  store i64 %171, ptr %17, align 8
  %172 = load ptr, ptr %12, align 8
  %173 = getelementptr inbounds %struct.PSH_PointRec_, ptr %172, i32 0, i32 8
  %174 = load i64, ptr %173, align 8
  %175 = load i64, ptr %15, align 8
  %176 = sub nsw i64 %174, %175
  store i64 %176, ptr %16, align 8
  %177 = load ptr, ptr %12, align 8
  %178 = getelementptr inbounds %struct.PSH_PointRec_, ptr %177, i32 0, i32 10
  %179 = load i64, ptr %178, align 8
  %180 = load i64, ptr %17, align 8
  %181 = sub nsw i64 %179, %180
  store i64 %181, ptr %18, align 8
  br label %199

182:                                              ; preds = %157
  %183 = load ptr, ptr %12, align 8
  %184 = getelementptr inbounds %struct.PSH_PointRec_, ptr %183, i32 0, i32 8
  %185 = load i64, ptr %184, align 8
  store i64 %185, ptr %15, align 8
  %186 = load ptr, ptr %12, align 8
  %187 = getelementptr inbounds %struct.PSH_PointRec_, ptr %186, i32 0, i32 10
  %188 = load i64, ptr %187, align 8
  store i64 %188, ptr %17, align 8
  %189 = load ptr, ptr %11, align 8
  %190 = getelementptr inbounds %struct.PSH_PointRec_, ptr %189, i32 0, i32 8
  %191 = load i64, ptr %190, align 8
  %192 = load i64, ptr %15, align 8
  %193 = sub nsw i64 %191, %192
  store i64 %193, ptr %16, align 8
  %194 = load ptr, ptr %11, align 8
  %195 = getelementptr inbounds %struct.PSH_PointRec_, ptr %194, i32 0, i32 10
  %196 = load i64, ptr %195, align 8
  %197 = load i64, ptr %17, align 8
  %198 = sub nsw i64 %196, %197
  store i64 %198, ptr %18, align 8
  br label %199

199:                                              ; preds = %182, %165
  store i64 65536, ptr %22, align 8
  %200 = load i64, ptr %16, align 8
  %201 = icmp sgt i64 %200, 0
  br i1 %201, label %202, label %206

202:                                              ; preds = %199
  %203 = load i64, ptr %18, align 8
  %204 = load i64, ptr %16, align 8
  %205 = call i64 @FT_DivFix(i64 noundef %203, i64 noundef %204)
  store i64 %205, ptr %22, align 8
  br label %206

206:                                              ; preds = %202, %199
  %207 = load ptr, ptr %11, align 8
  %208 = getelementptr inbounds %struct.PSH_PointRec_, ptr %207, i32 0, i32 1
  %209 = load ptr, ptr %208, align 8
  store ptr %209, ptr %13, align 8
  br label %210

210:                                              ; preds = %262, %206
  %211 = load ptr, ptr %13, align 8
  %212 = getelementptr inbounds %struct.PSH_PointRec_, ptr %211, i32 0, i32 8
  %213 = load i64, ptr %212, align 8
  store i64 %213, ptr %19, align 8
  %214 = load i64, ptr %19, align 8
  %215 = load i64, ptr %15, align 8
  %216 = sub nsw i64 %214, %215
  store i64 %216, ptr %20, align 8
  %217 = load i64, ptr %20, align 8
  %218 = icmp sle i64 %217, 0
  br i1 %218, label %219, label %228

219:                                              ; preds = %210
  %220 = load i64, ptr %17, align 8
  %221 = load i64, ptr %20, align 8
  %222 = trunc i64 %221 to i32
  %223 = load i64, ptr %6, align 8
  %224 = trunc i64 %223 to i32
  %225 = call i32 @FT_MulFix_x86_64(i32 noundef %222, i32 noundef %224)
  %226 = sext i32 %225 to i64
  %227 = add nsw i64 %220, %226
  store i64 %227, ptr %21, align 8
  br label %255

228:                                              ; preds = %210
  %229 = load i64, ptr %20, align 8
  %230 = load i64, ptr %16, align 8
  %231 = icmp sge i64 %229, %230
  br i1 %231, label %232, label %245

232:                                              ; preds = %228
  %233 = load i64, ptr %17, align 8
  %234 = load i64, ptr %18, align 8
  %235 = add nsw i64 %233, %234
  %236 = load i64, ptr %20, align 8
  %237 = load i64, ptr %16, align 8
  %238 = sub nsw i64 %236, %237
  %239 = trunc i64 %238 to i32
  %240 = load i64, ptr %6, align 8
  %241 = trunc i64 %240 to i32
  %242 = call i32 @FT_MulFix_x86_64(i32 noundef %239, i32 noundef %241)
  %243 = sext i32 %242 to i64
  %244 = add nsw i64 %235, %243
  store i64 %244, ptr %21, align 8
  br label %254

245:                                              ; preds = %228
  %246 = load i64, ptr %17, align 8
  %247 = load i64, ptr %20, align 8
  %248 = trunc i64 %247 to i32
  %249 = load i64, ptr %22, align 8
  %250 = trunc i64 %249 to i32
  %251 = call i32 @FT_MulFix_x86_64(i32 noundef %248, i32 noundef %250)
  %252 = sext i32 %251 to i64
  %253 = add nsw i64 %246, %252
  store i64 %253, ptr %21, align 8
  br label %254

254:                                              ; preds = %245, %232
  br label %255

255:                                              ; preds = %254, %219
  %256 = load i64, ptr %21, align 8
  %257 = load ptr, ptr %13, align 8
  %258 = getelementptr inbounds %struct.PSH_PointRec_, ptr %257, i32 0, i32 10
  store i64 %256, ptr %258, align 8
  %259 = load ptr, ptr %13, align 8
  %260 = getelementptr inbounds %struct.PSH_PointRec_, ptr %259, i32 0, i32 1
  %261 = load ptr, ptr %260, align 8
  store ptr %261, ptr %13, align 8
  br label %262

262:                                              ; preds = %255
  %263 = load ptr, ptr %13, align 8
  %264 = load ptr, ptr %12, align 8
  %265 = icmp ne ptr %263, %264
  br i1 %265, label %210, label %266, !llvm.loop !32

266:                                              ; preds = %262
  %267 = load ptr, ptr %12, align 8
  store ptr %267, ptr %11, align 8
  br label %268

268:                                              ; preds = %266
  %269 = load ptr, ptr %11, align 8
  %270 = load ptr, ptr %10, align 8
  %271 = icmp ne ptr %269, %270
  br i1 %271, label %127, label %272, !llvm.loop !33

272:                                              ; preds = %268
  br label %273

273:                                              ; preds = %272, %135, %124
  br label %274

274:                                              ; preds = %273
  %275 = load i32, ptr %9, align 4
  %276 = add i32 %275, -1
  store i32 %276, ptr %9, align 4
  %277 = load ptr, ptr %8, align 8
  %278 = getelementptr inbounds %struct.PSH_ContourRec_, ptr %277, i32 1
  store ptr %278, ptr %8, align 8
  br label %42, !llvm.loop !34

279:                                              ; preds = %42
  ret void
}