; Function Attrs: nounwind uwtable
define internal fastcc void @psh_glyph_interpolate_other_points(ptr nocapture noundef readonly %0, i32 noundef %1) unnamed_addr #0 {
  %3 = getelementptr inbounds i8, ptr %0, i64 4
  %4 = load i32, ptr %3, align 4
  %.not149 = icmp eq i32 %4, 0
  br i1 %.not149, label %._crit_edge155, label %.lr.ph154

.lr.ph154:                                        ; preds = %2
  %5 = getelementptr inbounds i8, ptr %0, i64 16
  %6 = load ptr, ptr %5, align 8
  %7 = getelementptr inbounds i8, ptr %0, i64 40
  %8 = load ptr, ptr %7, align 8
  %9 = getelementptr inbounds i8, ptr %8, i64 8
  %10 = zext nneg i32 %1 to i64
  %11 = getelementptr inbounds [2 x %struct.PSH_DimensionRec_], ptr %9, i64 0, i64 %10
  %12 = getelementptr inbounds i8, ptr %11, i64 400
  %13 = load i64, ptr %12, align 8
  %14 = getelementptr inbounds i8, ptr %11, i64 392
  %15 = load i64, ptr %14, align 8
  %sext121 = shl i64 %15, 32
  %16 = ashr exact i64 %sext121, 32
  br label %17

17:                                               ; preds = %.lr.ph154, %.loopexit
  %.086152 = phi i64 [ %13, %.lr.ph154 ], [ %.2, %.loopexit ]
  %.087151 = phi ptr [ %6, %.lr.ph154 ], [ %134, %.loopexit ]
  %.0101150 = phi i32 [ %4, %.lr.ph154 ], [ %133, %.loopexit ]
  %18 = load ptr, ptr %.087151, align 8
  %19 = getelementptr inbounds i8, ptr %.087151, i64 8
  %20 = load i32, ptr %19, align 8
  %21 = zext i32 %20 to i64
  %22 = getelementptr inbounds %struct.PSH_PointRec_, ptr %18, i64 %21
  %.not156 = icmp eq i32 %20, 0
  br i1 %.not156, label %.loopexit, label %.lr.ph

.lr.ph:                                           ; preds = %17, %.lr.ph
  %.092144 = phi i32 [ %.193, %.lr.ph ], [ 0, %17 ]
  %.094143 = phi ptr [ %27, %.lr.ph ], [ %18, %17 ]
  %.098142 = phi ptr [ %.2100, %.lr.ph ], [ null, %17 ]
  %23 = getelementptr inbounds i8, ptr %.094143, i64 28
  %24 = load i32, ptr %23, align 4
  %25 = and i32 %24, 32
  %.not119 = icmp eq i32 %25, 0
  %.not120 = icmp eq ptr %.098142, null
  %spec.select = select i1 %.not120, ptr %.094143, ptr %.098142
  %.2100 = select i1 %.not119, ptr %.098142, ptr %spec.select
  %26 = lshr exact i32 %25, 5
  %.193 = add i32 %26, %.092144
  %27 = getelementptr inbounds i8, ptr %.094143, i64 72
  %28 = icmp ult ptr %27, %22
  br i1 %28, label %.lr.ph, label %._crit_edge, !llvm.loop !50

._crit_edge:                                      ; preds = %.lr.ph
  %29 = icmp ult i32 %.193, 2
  br i1 %29, label %30, label %.preheader136

30:                                               ; preds = %._crit_edge
  %31 = icmp eq i32 %.193, 1
  br i1 %31, label %32, label %45

32:                                               ; preds = %30
  %33 = getelementptr inbounds i8, ptr %.2100, i64 64
  %34 = load i64, ptr %33, align 8
  %35 = getelementptr inbounds i8, ptr %.2100, i64 48
  %36 = load i64, ptr %35, align 8
  %sext129 = shl i64 %36, 32
  %37 = ashr exact i64 %sext129, 32
  %38 = mul nsw i64 %37, %16
  %39 = ashr i64 %38, 63
  %40 = add nsw i64 %38, 32768
  %41 = add nsw i64 %40, %39
  %42 = shl i64 %41, 16
  %43 = ashr i64 %42, 32
  %44 = sub nsw i64 %34, %43
  br label %45

45:                                               ; preds = %32, %30
  %.1 = phi i64 [ %44, %32 ], [ %.086152, %30 ]
  br i1 %.not156, label %.loopexit, label %.lr.ph148

.lr.ph148:                                        ; preds = %45, %58
  %.195146 = phi ptr [ %59, %58 ], [ %18, %45 ]
  %.not118 = icmp eq ptr %.195146, %.2100
  br i1 %.not118, label %58, label %46

46:                                               ; preds = %.lr.ph148
  %47 = getelementptr inbounds i8, ptr %.195146, i64 48
  %48 = load i64, ptr %47, align 8
  %sext132 = shl i64 %48, 32
  %49 = ashr exact i64 %sext132, 32
  %50 = mul nsw i64 %49, %16
  %51 = ashr i64 %50, 63
  %52 = add nsw i64 %50, 32768
  %53 = add nsw i64 %52, %51
  %54 = shl i64 %53, 16
  %55 = ashr i64 %54, 32
  %56 = add nsw i64 %55, %.1
  %57 = getelementptr inbounds i8, ptr %.195146, i64 64
  store i64 %56, ptr %57, align 8
  br label %58

58:                                               ; preds = %.lr.ph148, %46
  %59 = getelementptr inbounds i8, ptr %.195146, i64 72
  %60 = icmp ult ptr %59, %22
  br i1 %60, label %.lr.ph148, label %.loopexit, !llvm.loop !51

.preheader136:                                    ; preds = %._crit_edge, %.preheader136.backedge
  %.4 = phi ptr [ %.4.be, %.preheader136.backedge ], [ %.2100, %._crit_edge ]
  %61 = getelementptr inbounds i8, ptr %.4, i64 8
  %62 = load ptr, ptr %61, align 8
  %63 = icmp eq ptr %62, %.2100
  br i1 %63, label %.loopexit, label %64

64:                                               ; preds = %.preheader136
  %65 = getelementptr inbounds i8, ptr %62, i64 28
  %66 = load i32, ptr %65, align 4
  %67 = and i32 %66, 32
  %.not112 = icmp eq i32 %67, 0
  br i1 %.not112, label %.preheader, label %.preheader136.backedge

.preheader136.backedge:                           ; preds = %64, %132
  %.4.be = phi ptr [ %62, %64 ], [ %71, %132 ]
  br label %.preheader136, !llvm.loop !52

.preheader:                                       ; preds = %64
  %68 = getelementptr inbounds i8, ptr %.4, i64 8
  br label %69

69:                                               ; preds = %.preheader, %69
  %.097 = phi ptr [ %71, %69 ], [ %62, %.preheader ]
  %70 = getelementptr inbounds i8, ptr %.097, i64 8
  %71 = load ptr, ptr %70, align 8
  %72 = getelementptr inbounds i8, ptr %71, i64 28
  %73 = load i32, ptr %72, align 4
  %74 = and i32 %73, 32
  %.not113 = icmp eq i32 %74, 0
  br i1 %.not113, label %69, label %75

75:                                               ; preds = %69
  %76 = getelementptr inbounds i8, ptr %.4, i64 48
  %77 = load i64, ptr %76, align 8
  %78 = getelementptr inbounds i8, ptr %71, i64 48
  %79 = load i64, ptr %78, align 8
  %.not114 = icmp sgt i64 %77, %79
  br i1 %.not114, label %82, label %80

80:                                               ; preds = %75
  %81 = sub nsw i64 %79, %77
  br label %84

82:                                               ; preds = %75
  %83 = sub nsw i64 %77, %79
  br label %84

84:                                               ; preds = %82, %80
  %.4.lcssa.sink = phi ptr [ %.4, %82 ], [ %71, %80 ]
  %.pn = phi ptr [ %71, %82 ], [ %.4, %80 ]
  %.091 = phi i64 [ %79, %82 ], [ %77, %80 ]
  %.090 = phi i64 [ %83, %82 ], [ %81, %80 ]
  %.sink178.in = getelementptr inbounds i8, ptr %.pn, i64 64
  %.sink178 = load i64, ptr %.sink178.in, align 8
  %85 = getelementptr inbounds i8, ptr %.4.lcssa.sink, i64 64
  %86 = load i64, ptr %85, align 8
  %87 = icmp sgt i64 %.090, 0
  br i1 %87, label %88, label %91

88:                                               ; preds = %84
  %89 = sub nsw i64 %86, %.sink178
  %90 = tail call i64 @FT_DivFix(i64 noundef %89, i64 noundef %.090) #11
  %.pre = load ptr, ptr %68, align 8
  br label %91

91:                                               ; preds = %88, %84
  %92 = phi ptr [ %.pre, %88 ], [ %62, %84 ]
  %.0 = phi i64 [ %90, %88 ], [ 65536, %84 ]
  %sext124 = shl i64 %.0, 32
  %93 = ashr exact i64 %sext124, 32
  br label %94

94:                                               ; preds = %128, %91
  %.296 = phi ptr [ %92, %91 ], [ %131, %128 ]
  %95 = getelementptr inbounds i8, ptr %.296, i64 48
  %96 = load i64, ptr %95, align 8
  %97 = sub nsw i64 %96, %.091
  %98 = icmp slt i64 %97, 1
  br i1 %98, label %99, label %108

99:                                               ; preds = %94
  %sext126 = shl i64 %97, 32
  %100 = ashr exact i64 %sext126, 32
  %101 = mul nsw i64 %100, %16
  %102 = ashr i64 %101, 63
  %103 = add nsw i64 %101, 32768
  %104 = add nsw i64 %103, %102
  %105 = shl i64 %104, 16
  %106 = ashr i64 %105, 32
  %107 = add nsw i64 %106, %.sink178
  br label %128

108:                                              ; preds = %94
  %.not115 = icmp slt i64 %97, %.090
  br i1 %.not115, label %119, label %109

109:                                              ; preds = %108
  %110 = sub nsw i64 %97, %.090
  %sext = shl i64 %110, 32
  %111 = ashr exact i64 %sext, 32
  %112 = mul nsw i64 %111, %16
  %113 = ashr i64 %112, 63
  %114 = add nsw i64 %112, 32768
  %115 = add nsw i64 %114, %113
  %116 = shl i64 %115, 16
  %117 = ashr i64 %116, 32
  %118 = add nsw i64 %86, %117
  br label %128

119:                                              ; preds = %108
  %sext123 = shl i64 %97, 32
  %120 = ashr exact i64 %sext123, 32
  %121 = mul nsw i64 %120, %93
  %122 = ashr i64 %121, 63
  %123 = add nsw i64 %121, 32768
  %124 = add nsw i64 %123, %122
  %125 = shl i64 %124, 16
  %126 = ashr i64 %125, 32
  %127 = add nsw i64 %126, %.sink178
  br label %128

128:                                              ; preds = %109, %119, %99
  %.085 = phi i64 [ %107, %99 ], [ %118, %109 ], [ %127, %119 ]
  %129 = getelementptr inbounds i8, ptr %.296, i64 64
  store i64 %.085, ptr %129, align 8
  %130 = getelementptr inbounds i8, ptr %.296, i64 8
  %131 = load ptr, ptr %130, align 8
  %.not116 = icmp eq ptr %131, %71
  br i1 %.not116, label %132, label %94, !llvm.loop !53

132:                                              ; preds = %128
  %.not117 = icmp eq ptr %71, %.2100
  br i1 %.not117, label %.loopexit, label %.preheader136.backedge

.loopexit:                                        ; preds = %132, %.preheader136, %58, %17, %45
  %.2 = phi i64 [ %.1, %45 ], [ %.086152, %17 ], [ %.1, %58 ], [ %.086152, %.preheader136 ], [ %.086152, %132 ]
  %133 = add i32 %.0101150, -1
  %134 = getelementptr inbounds i8, ptr %.087151, i64 16
  %.not = icmp eq i32 %133, 0
  br i1 %.not, label %._crit_edge155, label %17, !llvm.loop !54

._crit_edge155:                                   ; preds = %.loopexit, %2
  ret void
}